; Function Attrs: mustprogress nofree nounwind willreturn memory(read, inaccessiblemem: none) uwtable
define internal noundef range(i32 -1, 2) i32 @_ZL17TargetArraySortFnPKSt4pairIN4llvm9StringRefEPKNS0_6TargetEES7_(ptr noundef readonly captures(none) %0, ptr noundef readonly captures(none) %1) #6 {
  %.sroa.2.0..sroa_idx = getelementptr inbounds nuw i8, ptr %1, i64 8
  %.sroa.2.0.copyload = load i64, ptr %.sroa.2.0..sroa_idx, align 8
  %3 = getelementptr inbounds nuw i8, ptr %0, i64 8
  %4 = load i64, ptr %3, align 8
  %.sroa.speculated.i = tail call i64 @llvm.umin.i64(i64 %.sroa.2.0.copyload, i64 %4)
  %5 = icmp eq i64 %.sroa.speculated.i, 0
  br i1 %5, label %_ZN4llvm9StringRef13compareMemoryEPKcS2_m.exit.thread.i, label %_ZN4llvm9StringRef13compareMemoryEPKcS2_m.exit.i

_ZN4llvm9StringRef13compareMemoryEPKcS2_m.exit.i: ; preds = %2
  %.sroa.0.0.copyload = load ptr, ptr %1, align 8
  %6 = load ptr, ptr %0, align 8
  %7 = tail call i32 @memcmp(ptr noundef %6, ptr noundef %.sroa.0.0.copyload, i64 noundef %.sroa.speculated.i) #20
  %.not.i = icmp eq i32 %7, 0
  br i1 %.not.i, label %_ZN4llvm9StringRef13compareMemoryEPKcS2_m.exit.thread.i, label %8

8:                                                ; preds = %_ZN4llvm9StringRef13compareMemoryEPKcS2_m.exit.i
  %.inv.i = icmp sgt i32 %7, -1
  %9 = select i1 %.inv.i, i32 1, i32 -1
  br label %_ZNK4llvm9StringRef7compareES0_.exit

_ZN4llvm9StringRef13compareMemoryEPKcS2_m.exit.thread.i: ; preds = %_ZN4llvm9StringRef13compareMemoryEPKcS2_m.exit.i, %2
  %10 = icmp eq i64 %4, %.sroa.2.0.copyload
  br i1 %10, label %_ZNK4llvm9StringRef7compareES0_.exit, label %11

11:                                               ; preds = %_ZN4llvm9StringRef13compareMemoryEPKcS2_m.exit.thread.i
  %12 = icmp ult i64 %4, %.sroa.2.0.copyload
  %13 = select i1 %12, i32 -1, i32 1
  br label %_ZNK4llvm9StringRef7compareES0_.exit

_ZNK4llvm9StringRef7compareES0_.exit:             ; preds = %8, %_ZN4llvm9StringRef13compareMemoryEPKcS2_m.exit.thread.i, %11
  %.0.i = phi i32 [ %9, %8 ], [ %13, %11 ], [ 0, %_ZN4llvm9StringRef13compareMemoryEPKcS2_m.exit.thread.i ]
  ret i32 %.0.i
}